; ModuleID = '56/842.c'
source_filename = "56/842.c"
target datalayout = "e-m:e-p270:32:32-p271:32:32-p272:64:64-i64:64-f80:128-n8:16:32:64-S128"
target triple = "x86_64-pc-linux-gnu"

@.str = private unnamed_addr constant [3 x i8] c"%c\00", align 1

; Function Attrs: noinline nounwind uwtable
define dso_local void @main() #0 {
  %1 = alloca i32, align 4
  %2 = alloca i32, align 4
  %3 = alloca [5 x i8], align 1
  store i32 0, i32* %1, align 4
  br label %4

4:                                                ; preds = %0, %16
  %5 = load i32, i32* %1, align 4
  %6 = sext i32 %5 to i64
  %7 = getelementptr inbounds [5 x i8], [5 x i8]* %3, i64 0, i64 %6
  %8 = call i32 (i8*, ...) @__isoc99_scanf(i8* getelementptr inbounds ([3 x i8], [3 x i8]* @.str, i64 0, i64 0), i8* %7)
  %9 = load i32, i32* %1, align 4
  %10 = sext i32 %9 to i64
  %11 = getelementptr inbounds [5 x i8], [5 x i8]* %3, i64 0, i64 %10
  %12 = load i8, i8* %11, align 1
  %13 = sext i8 %12 to i32
  %14 = icmp eq i32 %13, 10
  br i1 %14, label %15, label %16

15:                                               ; preds = %4
  br label %19

16:                                               ; preds = %4
  %17 = load i32, i32* %1, align 4
  %18 = add nsw i32 %17, 1
  store i32 %18, i32* %1, align 4
  br label %4

19:                                               ; preds = %15
  %20 = load i32, i32* %1, align 4
  %21 = sub nsw i32 %20, 1
  store i32 %21, i32* %2, align 4
  br label %22

22:                                               ; preds = %32, %19
  %23 = load i32, i32* %2, align 4
  %24 = icmp sge i32 %23, 0
  br i1 %24, label %25, label %35

25:                                               ; preds = %22
  %26 = load i32, i32* %2, align 4
  %27 = sext i32 %26 to i64
  %28 = getelementptr inbounds [5 x i8], [5 x i8]* %3, i64 0, i64 %27
  %29 = load i8, i8* %28, align 1
  %30 = sext i8 %29 to i32
  %31 = call i32 (i8*, ...) @printf(i8* getelementptr inbounds ([3 x i8], [3 x i8]* @.str, i64 0, i64 0), i32 %30)
  br label %32

32:                                               ; preds = %25
  %33 = load i32, i32* %2, align 4
  %34 = add nsw i32 %33, -1
  store i32 %34, i32* %2, align 4
  br label %22

35:                                               ; preds = %22
  ret void
}

declare dso_local i32 @__isoc99_scanf(i8*, ...) #1

declare dso_local i32 @printf(i8*, ...) #1


!llvm.module.flags = !{!0}
!llvm.ident = !{!1}

!0 = !{i32 1, !"wchar_size", i32 4}
!1 = !{!"clang version 10.0.0-4ubuntu1 "}
